; Function Attrs: mustprogress uwtable
define dso_local void @_ZN8V3Config9addIgnoreE11V3ErrorCodebRKNSt7__cxx1112basic_stringIcSt11char_traitsIcESaIcEEEii(i8 %0, i1 noundef zeroext %1, ptr noundef nonnull align 8 dereferenceable(32) %2, i32 noundef %3, i32 noundef %4) local_unnamed_addr #3 align 2 personality ptr @__gxx_personality_v0 {
  %6 = tail call noundef i32 @_ZNKSt7__cxx1112basic_stringIcSt11char_traitsIcESaIcEE7compareEPKc(ptr noundef nonnull align 8 dereferenceable(32) %2, ptr noundef nonnull @.str.1) #18
  %7 = icmp eq i32 %6, 0
  br i1 %7, label %8, label %18

8:                                                ; preds = %5
  %9 = load atomic i8, ptr @_ZGVZN8FileLine15defaultFileLineEvE1s acquire, align 8
  %10 = icmp eq i8 %9, 0
  br i1 %10, label %11, label %_ZN8FileLine13globalWarnOffE11V3ErrorCodeb.exit, !prof !5

11:                                               ; preds = %8
  %12 = tail call i32 @__cxa_guard_acquire(ptr nonnull @_ZGVZN8FileLine15defaultFileLineEvE1s) #18
  %.not.i.i = icmp eq i32 %12, 0
  br i1 %.not.i.i, label %_ZN8FileLine13globalWarnOffE11V3ErrorCodeb.exit, label %13

13:                                               ; preds = %11
  invoke void @_ZN8FileLineC2Ev(ptr noundef nonnull align 8 dereferenceable(40) @_ZZN8FileLine15defaultFileLineEvE1s)
          to label %14 unwind label %16

14:                                               ; preds = %13
  %15 = tail call i32 @__cxa_atexit(ptr nonnull @_ZN8FileLineD1Ev, ptr nonnull @_ZZN8FileLine15defaultFileLineEvE1s, ptr nonnull @__dso_handle) #18
  tail call void @__cxa_guard_release(ptr nonnull @_ZGVZN8FileLine15defaultFileLineEvE1s) #18
  br label %_ZN8FileLine13globalWarnOffE11V3ErrorCodeb.exit

16:                                               ; preds = %13
  %17 = landingpad { ptr, i32 }
          cleanup
  tail call void @__cxa_guard_abort(ptr nonnull @_ZGVZN8FileLine15defaultFileLineEvE1s) #18
  resume { ptr, i32 } %17

_ZN8FileLine13globalWarnOffE11V3ErrorCodeb.exit:  ; preds = %8, %11, %14
  tail call void @_ZN8FileLine6warnOnE11V3ErrorCodeb(ptr noundef nonnull align 8 dereferenceable(40) @_ZZN8FileLine15defaultFileLineEvE1s, i8 %0, i1 noundef zeroext %1)
  br label %42

18:                                               ; preds = %5
  %19 = load atomic i8, ptr @_ZGVZN16V3ConfigResolver1sEvE11s_singleton acquire, align 8
  %20 = icmp eq i8 %19, 0
  br i1 %20, label %21, label %_ZN16V3ConfigResolver1sEv.exit, !prof !5

21:                                               ; preds = %18
  %22 = tail call i32 @__cxa_guard_acquire(ptr nonnull @_ZGVZN16V3ConfigResolver1sEvE11s_singleton) #18
  %.not.i = icmp eq i32 %22, 0
  br i1 %.not.i, label %_ZN16V3ConfigResolver1sEv.exit, label %23

23:                                               ; preds = %21
  tail call void @_ZN16V3ConfigResolverC2Ev(ptr noundef nonnull align 8 dereferenceable(408) @_ZZN16V3ConfigResolver1sEvE11s_singleton) #18
  %24 = tail call i32 @__cxa_atexit(ptr nonnull @_ZN16V3ConfigResolverD2Ev, ptr nonnull @_ZZN16V3ConfigResolver1sEvE11s_singleton, ptr nonnull @__dso_handle) #18
  tail call void @__cxa_guard_release(ptr nonnull @_ZGVZN16V3ConfigResolver1sEvE11s_singleton) #18
  br label %_ZN16V3ConfigResolver1sEv.exit

_ZN16V3ConfigResolver1sEv.exit:                   ; preds = %18, %21, %23
  %25 = tail call noundef nonnull align 8 dereferenceable(136) ptr @_ZN24V3ConfigWildcardResolverI12V3ConfigFileE2atERKNSt7__cxx1112basic_stringIcSt11char_traitsIcESaIcEEE(ptr noundef nonnull align 8 dereferenceable(136) getelementptr inbounds (%class.V3ConfigResolver, ptr @_ZZN16V3ConfigResolver1sEvE11s_singleton, i64 0, i32 1, i32 0, i32 0, i32 0, i32 0, i32 0, i32 0), ptr noundef nonnull align 8 dereferenceable(32) %2)
  tail call void @_ZN12V3ConfigFile9addIgnoreE11V3ErrorCodeib(ptr noundef nonnull align 8 dereferenceable(136) %25, i8 %0, i32 noundef %3, i1 noundef zeroext %1)
  %.not = icmp eq i32 %4, 0
  br i1 %.not, label %35, label %26

26:                                               ; preds = %_ZN16V3ConfigResolver1sEv.exit
  %27 = load atomic i8, ptr @_ZGVZN16V3ConfigResolver1sEvE11s_singleton acquire, align 8
  %28 = icmp eq i8 %27, 0
  br i1 %28, label %29, label %_ZN16V3ConfigResolver1sEv.exit14, !prof !5

29:                                               ; preds = %26
  %30 = tail call i32 @__cxa_guard_acquire(ptr nonnull @_ZGVZN16V3ConfigResolver1sEvE11s_singleton) #18
  %.not.i13 = icmp eq i32 %30, 0
  br i1 %.not.i13, label %_ZN16V3ConfigResolver1sEv.exit14, label %31

31:                                               ; preds = %29
  tail call void @_ZN16V3ConfigResolverC2Ev(ptr noundef nonnull align 8 dereferenceable(408) @_ZZN16V3ConfigResolver1sEvE11s_singleton) #18
  %32 = tail call i32 @__cxa_atexit(ptr nonnull @_ZN16V3ConfigResolverD2Ev, ptr nonnull @_ZZN16V3ConfigResolver1sEvE11s_singleton, ptr nonnull @__dso_handle) #18
  tail call void @__cxa_guard_release(ptr nonnull @_ZGVZN16V3ConfigResolver1sEvE11s_singleton) #18
  br label %_ZN16V3ConfigResolver1sEv.exit14

_ZN16V3ConfigResolver1sEv.exit14:                 ; preds = %26, %29, %31
  %33 = tail call noundef nonnull align 8 dereferenceable(136) ptr @_ZN24V3ConfigWildcardResolverI12V3ConfigFileE2atERKNSt7__cxx1112basic_stringIcSt11char_traitsIcESaIcEEE(ptr noundef nonnull align 8 dereferenceable(136) getelementptr inbounds (%class.V3ConfigResolver, ptr @_ZZN16V3ConfigResolver1sEvE11s_singleton, i64 0, i32 1, i32 0, i32 0, i32 0, i32 0, i32 0, i32 0), ptr noundef nonnull align 8 dereferenceable(32) %2)
  %34 = xor i1 %1, true
  tail call void @_ZN12V3ConfigFile9addIgnoreE11V3ErrorCodeib(ptr noundef nonnull align 8 dereferenceable(136) %33, i8 %0, i32 noundef %4, i1 noundef zeroext %34)
  br label %35

35:                                               ; preds = %_ZN16V3ConfigResolver1sEv.exit14, %_ZN16V3ConfigResolver1sEv.exit
  %36 = load atomic i8, ptr @_ZGVZN16V3ConfigResolver1sEvE11s_singleton acquire, align 8
  %37 = icmp eq i8 %36, 0
  br i1 %37, label %38, label %_ZN16V3ConfigResolver1sEv.exit16, !prof !5

38:                                               ; preds = %35
  %39 = tail call i32 @__cxa_guard_acquire(ptr nonnull @_ZGVZN16V3ConfigResolver1sEvE11s_singleton) #18
  %.not.i15 = icmp eq i32 %39, 0
  br i1 %.not.i15, label %_ZN16V3ConfigResolver1sEv.exit16, label %40

40:                                               ; preds = %38
  tail call void @_ZN16V3ConfigResolverC2Ev(ptr noundef nonnull align 8 dereferenceable(408) @_ZZN16V3ConfigResolver1sEvE11s_singleton) #18
  %41 = tail call i32 @__cxa_atexit(ptr nonnull @_ZN16V3ConfigResolverD2Ev, ptr nonnull @_ZZN16V3ConfigResolver1sEvE11s_singleton, ptr nonnull @__dso_handle) #18
  tail call void @__cxa_guard_release(ptr nonnull @_ZGVZN16V3ConfigResolver1sEvE11s_singleton) #18
  br label %_ZN16V3ConfigResolver1sEv.exit16

_ZN16V3ConfigResolver1sEv.exit16:                 ; preds = %35, %38, %40
  tail call void @_ZN24V3ConfigWildcardResolverI12V3ConfigFileE5flushEv(ptr noundef nonnull align 8 dereferenceable(136) getelementptr inbounds (%class.V3ConfigResolver, ptr @_ZZN16V3ConfigResolver1sEvE11s_singleton, i64 0, i32 1, i32 0, i32 0, i32 0, i32 0, i32 0, i32 0))
  br label %42

42:                                               ; preds = %_ZN16V3ConfigResolver1sEv.exit16, %_ZN8FileLine13globalWarnOffE11V3ErrorCodeb.exit
  ret void
}